; Function Attrs: mustprogress nounwind uwtable
define dso_local noundef zeroext i1 @_ZN4llvm8LLParser32parseDIExpressionBodyAtBeginningERPNS_6MDNodeERjPKNS_11SlotMappingE(ptr noundef nonnull align 8 dereferenceable(1768) %0, ptr nocapture noundef nonnull writeonly align 8 dereferenceable(8) %1, ptr nocapture noundef nonnull writeonly align 4 dereferenceable(4) %2, ptr noundef %3) local_unnamed_addr #0 align 2 {
  tail call void @_ZN4llvm8LLParser19restoreParsingStateEPKNS_11SlotMappingE(ptr noundef nonnull align 8 dereferenceable(1768) %0, ptr noundef %3)
  %5 = getelementptr inbounds nuw i8, ptr %0, i64 176
  %6 = tail call noundef i32 @_ZN4llvm7LLLexer8LexTokenEv(ptr noundef nonnull align 8 dereferenceable(161) %5) #25
  %7 = getelementptr inbounds i8, ptr %0, i64 232
  store i32 %6, ptr %7, align 8
  store i32 0, ptr %2, align 4
  %8 = getelementptr inbounds i8, ptr %0, i64 224
  %9 = load ptr, ptr %8, align 8
  store ptr null, ptr %1, align 8
  %10 = tail call noundef zeroext i1 @_ZN4llvm8LLParser21parseDIExpressionBodyERPNS_6MDNodeEb(ptr noundef nonnull align 8 dereferenceable(1768) %0, ptr noundef nonnull align 8 dereferenceable(8) %1, i1 noundef zeroext false)
  %11 = load ptr, ptr %8, align 8
  %12 = ptrtoint ptr %11 to i64
  %13 = ptrtoint ptr %9 to i64
  %14 = sub i64 %12, %13
  %15 = trunc i64 %14 to i32
  store i32 %15, ptr %2, align 4
  ret i1 %10
}